; Function Attrs: null_pointer_is_valid sspstrong uwtable
define internal void @ipv6_hash_table_resolved_to_list(ptr readnone captures(none) %0, ptr noundef %1, ptr noundef captures(none) %2) #3 {
  %4 = getelementptr inbounds nuw i8, ptr %1, i64 16
  %5 = load i8, ptr %4, align 1
  %6 = and i8 %5, 6
  %7 = icmp eq i8 %6, 6
  br i1 %7, label %8, label %12

8:                                                ; preds = %3
  %9 = getelementptr inbounds nuw i8, ptr %2, i64 8
  %10 = load ptr, ptr %9, align 8
  %11 = tail call ptr @g_list_prepend(ptr noundef %10, ptr noundef %1)
  store ptr %11, ptr %9, align 8
  br label %12

12:                                               ; preds = %8, %3
  ret void
}